target datalayout = "e-m:e-p270:32:32-p271:32:32-p272:64:64-i64:64-i128:128-f80:128-n8:16:32:64-S128"
target triple = "x86_64-pc-linux-gnu"

%struct.H5O_token_t = type { [16 x i8] }
%struct.named_dt_t = type { %struct.H5O_token_t, i64, ptr }

@enable_error_stack = external global i32, align 4
@H5tools_ERR_STACK_g = external global i64, align 8
@H5tools_ERR_CLS_g = external global i64, align 8
@.str.2 = private unnamed_addr constant [117 x i8] c"generated/home/dtcxzyw/WorkSpace/Projects/compilers/llvm-opt-benchmark/bench/hdf5/hdf5/tools/src/h5repack/h5repack.c\00", align 1
@H5E_tools_g = external global i64, align 8
@H5E_tools_min_id_g = external global i64, align 8
@stderr = external global ptr, align 8
@.str.4 = private unnamed_addr constant [2 x i8] c"\0A\00", align 1
@__func__.named_datatype_free = private unnamed_addr constant [20 x i8] c"named_datatype_free\00", align 1
@.str.10 = private unnamed_addr constant [16 x i8] c"H5Tclose failed\00", align 1

; Function Attrs: nounwind uwtable
define dso_local i32 @named_datatype_free(ptr noundef %0, i32 noundef %1) #0 {
  %3 = alloca ptr, align 8
  %4 = alloca i32, align 4
  %5 = alloca ptr, align 8
  %6 = alloca i32, align 4
  store ptr %0, ptr %3, align 8
  store i32 %1, ptr %4, align 4
  %7 = load ptr, ptr %3, align 8
  %8 = load ptr, ptr %7, align 8
  store ptr %8, ptr %5, align 8
  store i32 -1, ptr %6, align 4
  br label %9

9:                                                ; preds = %49, %2
  %10 = load ptr, ptr %5, align 8
  %11 = icmp ne ptr %10, null
  br i1 %11, label %12, label %57

12:                                               ; preds = %9
  %13 = load ptr, ptr %5, align 8
  %14 = getelementptr inbounds %struct.named_dt_t, ptr %13, i32 0, i32 1
  %15 = load i64, ptr %14, align 8
  %16 = call i32 @H5Tclose(i64 noundef %15)
  %17 = icmp slt i32 %16, 0
  br i1 %17, label %18, label %49

18:                                               ; preds = %12
  %19 = load i32, ptr %4, align 4
  %20 = icmp ne i32 %19, 0
  br i1 %20, label %49, label %21

21:                                               ; preds = %18
  br label %22

22:                                               ; preds = %21
  br label %23

23:                                               ; preds = %22
  %24 = load i32, ptr @enable_error_stack, align 4
  %25 = icmp sgt i32 %24, 0
  br i1 %25, label %26, label %44

26:                                               ; preds = %23
  %27 = load i64, ptr @H5tools_ERR_STACK_g, align 8
  %28 = icmp sge i64 %27, 0
  br i1 %28, label %29, label %38

29:                                               ; preds = %26
  %30 = load i64, ptr @H5tools_ERR_CLS_g, align 8
  %31 = icmp sge i64 %30, 0
  br i1 %31, label %32, label %38

32:                                               ; preds = %29
  %33 = load i64, ptr @H5tools_ERR_STACK_g, align 8
  %34 = load i64, ptr @H5tools_ERR_CLS_g, align 8
  %35 = load i64, ptr @H5E_tools_g, align 8
  %36 = load i64, ptr @H5E_tools_min_id_g, align 8
  %37 = call i32 (i64, ptr, ptr, i32, i64, i64, i64, ptr, ...) @H5Epush2(i64 noundef %33, ptr noundef @.str.2, ptr noundef @__func__.named_datatype_free, i32 noundef 331, i64 noundef %34, i64 noundef %35, i64 noundef %36, ptr noundef @.str.10)
  br label %43

38:                                               ; preds = %29, %26
  %39 = load ptr, ptr @stderr, align 8
  %40 = call i32 (ptr, ptr, ...) @fprintf(ptr noundef %39, ptr noundef @.str.10) #7
  %41 = load ptr, ptr @stderr, align 8
  %42 = call i32 (ptr, ptr, ...) @fprintf(ptr noundef %41, ptr noundef @.str.4) #7
  br label %43

43:                                               ; preds = %38, %32
  br label %44

44:                                               ; preds = %43, %23
  br label %45

45:                                               ; preds = %44
  br label %46

46:                                               ; preds = %45
  store i32 -1, ptr %6, align 4
  br label %58

47:                                               ; No predecessors!
  br label %48

48:                                               ; preds = %47
  br label %49

49:                                               ; preds = %48, %18, %12
  %50 = load ptr, ptr %5, align 8
  %51 = getelementptr inbounds %struct.named_dt_t, ptr %50, i32 0, i32 2
  %52 = load ptr, ptr %51, align 8
  store ptr %52, ptr %5, align 8
  %53 = load ptr, ptr %3, align 8
  %54 = load ptr, ptr %53, align 8
  call void @free(ptr noundef %54) #7
  %55 = load ptr, ptr %5, align 8
  %56 = load ptr, ptr %3, align 8
  store ptr %55, ptr %56, align 8
  br label %9

57:                                               ; preds = %9
  store i32 0, ptr %6, align 4
  br label %58

58:                                               ; preds = %57, %46
  %59 = load i32, ptr %6, align 4
  ret i32 %59
}