; Function Attrs: nounwind uwtable
define dso_local range(i32 -1, 1) i32 @named_datatype_free(ptr noundef captures(none) %0, i32 noundef %1) local_unnamed_addr #0 {
  %3 = load ptr, ptr %0, align 8
  %.not14 = icmp eq ptr %3, null
  br i1 %.not14, label %.loopexit, label %.lr.ph

.lr.ph:                                           ; preds = %2
  %.not16 = icmp eq i32 %1, 0
  br i1 %.not16, label %.lr.ph.split, label %.lr.ph.split.us

.lr.ph.split.us:                                  ; preds = %.lr.ph, %.lr.ph.split.us
  %.01115.us = phi ptr [ %8, %.lr.ph.split.us ], [ %3, %.lr.ph ]
  %4 = getelementptr inbounds nuw i8, ptr %.01115.us, i64 16
  %5 = load i64, ptr %4, align 8
  %6 = tail call i32 @H5Tclose(i64 noundef %5) #10
  %7 = getelementptr inbounds nuw i8, ptr %.01115.us, i64 24
  %8 = load ptr, ptr %7, align 8
  %9 = load ptr, ptr %0, align 8
  tail call void @free(ptr noundef %9) #10
  store ptr %8, ptr %0, align 8
  %.not.us = icmp eq ptr %8, null
  br i1 %.not.us, label %.loopexit, label %.lr.ph.split.us

.lr.ph.split:                                     ; preds = %.lr.ph, %30
  %.01115 = phi ptr [ %32, %30 ], [ %3, %.lr.ph ]
  %10 = getelementptr inbounds nuw i8, ptr %.01115, i64 16
  %11 = load i64, ptr %10, align 8
  %12 = tail call i32 @H5Tclose(i64 noundef %11) #10
  %13 = icmp sgt i32 %12, -1
  br i1 %13, label %30, label %14

14:                                               ; preds = %.lr.ph.split
  %15 = load i32, ptr @enable_error_stack, align 4
  %16 = icmp sgt i32 %15, 0
  br i1 %16, label %17, label %.loopexit

17:                                               ; preds = %14
  %18 = load i64, ptr @H5tools_ERR_STACK_g, align 8
  %19 = icmp sgt i64 %18, -1
  %20 = load i64, ptr @H5tools_ERR_CLS_g, align 8
  %21 = icmp sgt i64 %20, -1
  %or.cond3 = select i1 %19, i1 %21, i1 false
  br i1 %or.cond3, label %22, label %26

22:                                               ; preds = %17
  %23 = load i64, ptr @H5E_tools_g, align 8
  %24 = load i64, ptr @H5E_tools_min_id_g, align 8
  %25 = tail call i32 (i64, ptr, ptr, i32, i64, i64, i64, ptr, ...) @H5Epush2(i64 noundef %18, ptr noundef nonnull @.str.2, ptr noundef nonnull @__func__.named_datatype_free, i32 noundef 331, i64 noundef %20, i64 noundef %23, i64 noundef %24, ptr noundef nonnull @.str.10) #10
  br label %.loopexit

26:                                               ; preds = %17
  %27 = load ptr, ptr @stderr, align 8
  %28 = tail call i64 @fwrite(ptr nonnull @.str.10, i64 15, i64 1, ptr %27) #11
  %29 = load ptr, ptr @stderr, align 8
  %fputc = tail call i32 @fputc(i32 10, ptr %29)
  br label %.loopexit

30:                                               ; preds = %.lr.ph.split
  %31 = getelementptr inbounds nuw i8, ptr %.01115, i64 24
  %32 = load ptr, ptr %31, align 8
  %33 = load ptr, ptr %0, align 8
  tail call void @free(ptr noundef %33) #10
  store ptr %32, ptr %0, align 8
  %.not = icmp eq ptr %32, null
  br i1 %.not, label %.loopexit, label %.lr.ph.split

.loopexit:                                        ; preds = %.lr.ph.split.us, %30, %2, %14, %26, %22
  %.0 = phi i32 [ -1, %22 ], [ -1, %26 ], [ -1, %14 ], [ 0, %2 ], [ 0, %30 ], [ 0, %.lr.ph.split.us ]
  ret i32 %.0
}